; Function Attrs: nounwind uwtable
define dso_local i64 @cash_div_flt8(ptr noundef readonly captures(none) %0) local_unnamed_addr #0 {
  %2 = getelementptr inbounds nuw i8, ptr %0, i64 32
  %3 = load i64, ptr %2, align 8
  %4 = getelementptr inbounds nuw i8, ptr %0, i64 48
  %5 = load double, ptr %4, align 8
  %6 = fcmp oeq double %5, 0.000000e+00
  br i1 %6, label %7, label %8, !prof !17

7:                                                ; preds = %1
  tail call void @float_zero_divide_error() #17
  unreachable

8:                                                ; preds = %1
  %9 = sitofp i64 %3 to double
  %10 = fdiv double %9, %5
  %11 = tail call double @llvm.fabs.f64(double %10)
  %12 = fcmp oeq double %11, 0x7FF0000000000000
  br i1 %12, label %13, label %14, !prof !17

13:                                               ; preds = %8
  tail call void @float_overflow_error() #17
  unreachable

14:                                               ; preds = %8
  %15 = fcmp oeq double %10, 0.000000e+00
  br i1 %15, label %16, label %float8_div.exit.i, !prof !17

16:                                               ; preds = %14
  %17 = icmp eq i64 %3, 0
  %18 = tail call double @llvm.fabs.f64(double %5)
  %19 = fcmp oeq double %18, 0x7FF0000000000000
  %or.cond.i.i = or i1 %17, %19
  br i1 %or.cond.i.i, label %float8_div.exit.i, label %20

20:                                               ; preds = %16
  tail call void @float_underflow_error() #17
  unreachable

float8_div.exit.i:                                ; preds = %16, %14
  %21 = tail call double @llvm.rint.f64(double %10)
  %22 = fcmp uno double %21, 0.000000e+00
  br i1 %22, label %.critedge.i, label %23

23:                                               ; preds = %float8_div.exit.i
  %24 = fcmp ult double %21, 0xC3E0000000000000
  %25 = fcmp uge double %21, 0x43E0000000000000
  %.not6.i = or i1 %24, %25
  br i1 %.not6.i, label %.critedge.i, label %cash_div_float8.exit, !prof !17

.critedge.i:                                      ; preds = %23, %float8_div.exit.i
  %26 = tail call zeroext i1 @errstart_cold(i32 noundef 21, ptr noundef null) #16
  tail call void @llvm.assume(i1 %26)
  %27 = tail call i32 @errcode(i32 noundef 50331778) #13
  %28 = tail call i32 (ptr, ...) @errmsg(ptr noundef nonnull @.str.25) #13
  tail call void @errfinish(ptr noundef nonnull @.str.7, i32 noundef 137, ptr noundef nonnull @__func__.cash_div_float8) #13
  unreachable

cash_div_float8.exit:                             ; preds = %23
  %29 = fptosi double %21 to i64
  ret i64 %29
}